; Function Attrs: nounwind uwtable
define hidden void @_PyTuple_MaybeUntrack(ptr noundef captures(none) %0) local_unnamed_addr #0 {
  %2 = getelementptr i8, ptr %0, i64 8
  %.val18 = load ptr, ptr %2, align 8, !tbaa !99
  %.not = icmp eq ptr %.val18, @PyTuple_Type
  br i1 %.not, label %3, label %_PyObject_GC_MAY_BE_TRACKED.exit.thread22

3:                                                ; preds = %1
  %4 = getelementptr i8, ptr %0, i64 -16
  %.val17 = load i64, ptr %4, align 8, !tbaa !28
  %.not25 = icmp eq i64 %.val17, 0
  br i1 %.not25, label %_PyObject_GC_MAY_BE_TRACKED.exit.thread22, label %5

5:                                                ; preds = %3
  %6 = getelementptr i8, ptr %0, i64 16
  %.val = load i64, ptr %6, align 8, !tbaa !107
  %7 = icmp sgt i64 %.val, 0
  br i1 %7, label %.lr.ph, label %._crit_edge

.lr.ph:                                           ; preds = %5
  %8 = getelementptr inbounds nuw i8, ptr %0, i64 24
  br label %9

9:                                                ; preds = %.lr.ph, %.critedge
  %.027 = phi i64 [ 0, %.lr.ph ], [ %17, %.critedge ]
  %10 = getelementptr [1 x ptr], ptr %8, i64 0, i64 %.027
  %11 = load ptr, ptr %10, align 8, !tbaa !25
  %.not15 = icmp eq ptr %11, null
  br i1 %.not15, label %_PyObject_GC_MAY_BE_TRACKED.exit.thread22, label %12

12:                                               ; preds = %9
  %13 = tail call i32 @PyObject_IS_GC(ptr noundef nonnull %11) #9
  %.not.i = icmp eq i32 %13, 0
  br i1 %.not.i, label %.critedge, label %14

14:                                               ; preds = %12
  %15 = getelementptr i8, ptr %11, i64 8
  %.val4.i = load ptr, ptr %15, align 8, !tbaa !99
  %.not5.i = icmp eq ptr %.val4.i, @PyTuple_Type
  br i1 %.not5.i, label %_PyObject_GC_MAY_BE_TRACKED.exit, label %_PyObject_GC_MAY_BE_TRACKED.exit.thread22

_PyObject_GC_MAY_BE_TRACKED.exit:                 ; preds = %14
  %16 = getelementptr i8, ptr %11, i64 -16
  %.val.i = load i64, ptr %16, align 8, !tbaa !28
  %.not26 = icmp eq i64 %.val.i, 0
  br i1 %.not26, label %.critedge, label %_PyObject_GC_MAY_BE_TRACKED.exit.thread22

.critedge:                                        ; preds = %12, %_PyObject_GC_MAY_BE_TRACKED.exit
  %17 = add nuw nsw i64 %.027, 1
  %exitcond.not = icmp eq i64 %17, %.val
  br i1 %exitcond.not, label %._crit_edge.loopexit, label %9, !llvm.loop !109

._crit_edge.loopexit:                             ; preds = %.critedge
  %.val9.i.pre = load i64, ptr %4, align 8, !tbaa !28
  br label %._crit_edge

._crit_edge:                                      ; preds = %._crit_edge.loopexit, %5
  %.val9.i = phi i64 [ %.val9.i.pre, %._crit_edge.loopexit ], [ %.val17, %5 ]
  %18 = getelementptr i8, ptr %0, i64 -8
  %.val.i19 = load i64, ptr %18, align 8, !tbaa !26
  %19 = and i64 %.val.i19, -4
  %20 = inttoptr i64 %19 to ptr
  %21 = and i64 %.val9.i, -4
  %22 = inttoptr i64 %21 to ptr
  %23 = load i64, ptr %20, align 8, !tbaa !28
  %24 = and i64 %23, 3
  %25 = or disjoint i64 %24, %21
  store i64 %25, ptr %20, align 8, !tbaa !28
  %26 = getelementptr inbounds nuw i8, ptr %22, i64 8
  %27 = load i64, ptr %26, align 8, !tbaa !26
  %28 = and i64 %27, 3
  %29 = or disjoint i64 %28, %19
  store i64 %29, ptr %26, align 8, !tbaa !26
  store i64 0, ptr %4, align 8, !tbaa !28
  %30 = load i64, ptr %18, align 8, !tbaa !26
  %31 = and i64 %30, 1
  store i64 %31, ptr %18, align 8, !tbaa !26
  br label %_PyObject_GC_MAY_BE_TRACKED.exit.thread22

_PyObject_GC_MAY_BE_TRACKED.exit.thread22:        ; preds = %14, %_PyObject_GC_MAY_BE_TRACKED.exit, %9, %1, %3, %._crit_edge
  ret void
}